; Function Attrs: mustprogress uwtable
define dso_local noundef zeroext i1 @_ZNK6Effect17is_read_partiallyEPK8Variable(ptr noundef nonnull readonly align 8 captures(none) dereferenceable(74) %0, ptr noundef %1) local_unnamed_addr #5 align 2 {
  %3 = tail call noundef zeroext i1 @_ZNK6Effect7is_readEPK8Variable(ptr noundef nonnull align 8 dereferenceable(74) %0, ptr noundef %1)
  br i1 %3, label %_ZNK6Effect27sibling_union_field_is_readEPK8Variable.exit, label %4

4:                                                ; preds = %2
  %5 = tail call noundef zeroext i1 @_ZNK6Effect13field_is_readEPK8Variable(ptr noundef nonnull align 8 dereferenceable(74) %0, ptr noundef %1)
  br i1 %5, label %_ZNK6Effect27sibling_union_field_is_readEPK8Variable.exit, label %6

6:                                                ; preds = %4
  %7 = load ptr, ptr %1, align 8, !tbaa !77
  %8 = getelementptr inbounds nuw i8, ptr %7, i64 64
  %9 = load ptr, ptr %8, align 8
  %10 = tail call noundef ptr %9(ptr noundef nonnull align 8 dereferenceable(200) %1)
  %11 = tail call noundef ptr @_ZNK8Variable19get_container_unionEv(ptr noundef nonnull align 8 dereferenceable(200) %10)
  %.not.i = icmp eq ptr %11, null
  br i1 %.not.i, label %_ZNK6Effect27sibling_union_field_is_readEPK8Variable.exit, label %.preheader.i

.preheader.i:                                     ; preds = %6
  %12 = getelementptr inbounds nuw i8, ptr %0, i64 8
  %13 = load ptr, ptr %12, align 8, !tbaa !16
  %14 = load ptr, ptr %0, align 8, !tbaa !17
  %.not1617.not.i = icmp eq ptr %13, %14
  br i1 %.not1617.not.i, label %_ZNK6Effect27sibling_union_field_is_readEPK8Variable.exit, label %.lr.ph.i

15:                                               ; preds = %.lr.ph.i
  %16 = add nuw i64 %.01318.i, 1
  %17 = load ptr, ptr %12, align 8, !tbaa !16
  %18 = load ptr, ptr %0, align 8, !tbaa !17
  %19 = ptrtoint ptr %17 to i64
  %20 = ptrtoint ptr %18 to i64
  %21 = sub i64 %19, %20
  %22 = ashr exact i64 %21, 3
  %.not16.i = icmp ult i64 %16, %22
  br i1 %.not16.i, label %.lr.ph.i, label %_ZNK6Effect27sibling_union_field_is_readEPK8Variable.exit, !llvm.loop !118

.lr.ph.i:                                         ; preds = %.preheader.i, %15
  %23 = phi ptr [ %18, %15 ], [ %14, %.preheader.i ]
  %.01318.i = phi i64 [ %16, %15 ], [ 0, %.preheader.i ]
  %24 = getelementptr inbounds nuw ptr, ptr %23, i64 %.01318.i
  %25 = load ptr, ptr %24, align 8, !tbaa !23
  %26 = load ptr, ptr %25, align 8, !tbaa !77
  %27 = getelementptr inbounds nuw i8, ptr %26, i64 64
  %28 = load ptr, ptr %27, align 8
  %29 = tail call noundef ptr %28(ptr noundef nonnull align 8 dereferenceable(200) %25)
  %30 = tail call noundef ptr @_ZNK8Variable19get_container_unionEv(ptr noundef nonnull align 8 dereferenceable(200) %29)
  %.not15.i = icmp eq ptr %11, %30
  br i1 %.not15.i, label %_ZNK6Effect27sibling_union_field_is_readEPK8Variable.exit, label %15

_ZNK6Effect27sibling_union_field_is_readEPK8Variable.exit: ; preds = %.lr.ph.i, %15, %.preheader.i, %6, %4, %2
  %31 = phi i1 [ true, %4 ], [ true, %2 ], [ false, %6 ], [ false, %.preheader.i ], [ %.not15.i, %15 ], [ %.not15.i, %.lr.ph.i ]
  ret i1 %31
}